ARM GAS  /tmp/ccGM5pAe.s 			page 1


   1              		.cpu cortex-m4
   2              		.eabi_attribute 27, 1
   3              		.eabi_attribute 28, 1
   4              		.eabi_attribute 20, 1
   5              		.eabi_attribute 21, 1
   6              		.eabi_attribute 23, 3
   7              		.eabi_attribute 24, 1
   8              		.eabi_attribute 25, 1
   9              		.eabi_attribute 26, 1
  10              		.eabi_attribute 30, 1
  11              		.eabi_attribute 34, 1
  12              		.eabi_attribute 18, 4
  13              		.file	"gpio.c"
  14              		.text
  15              	.Ltext0:
  16              		.cfi_sections	.debug_frame
  17              		.section	.text.MX_GPIO_Init,"ax",%progbits
  18              		.align	1
  19              		.global	MX_GPIO_Init
  20              		.arch armv7e-m
  21              		.syntax unified
  22              		.thumb
  23              		.thumb_func
  24              		.fpu fpv4-sp-d16
  26              	MX_GPIO_Init:
  27              	.LFB126:
  28              		.file 1 "Src/gpio.c"
   1:Src/gpio.c    **** /**
   2:Src/gpio.c    ****   ******************************************************************************
   3:Src/gpio.c    ****   * File Name          : gpio.c
   4:Src/gpio.c    ****   * Description        : This file provides code for the configuration
   5:Src/gpio.c    ****   *                      of all used GPIO pins.
   6:Src/gpio.c    ****   ******************************************************************************
   7:Src/gpio.c    ****   ** This notice applies to any and all portions of this file
   8:Src/gpio.c    ****   * that are not between comment pairs USER CODE BEGIN and
   9:Src/gpio.c    ****   * USER CODE END. Other portions of this file, whether 
  10:Src/gpio.c    ****   * inserted by the user or by software development tools
  11:Src/gpio.c    ****   * are owned by their respective copyright owners.
  12:Src/gpio.c    ****   *
  13:Src/gpio.c    ****   * COPYRIGHT(c) 2019 STMicroelectronics
  14:Src/gpio.c    ****   *
  15:Src/gpio.c    ****   * Redistribution and use in source and binary forms, with or without modification,
  16:Src/gpio.c    ****   * are permitted provided that the following conditions are met:
  17:Src/gpio.c    ****   *   1. Redistributions of source code must retain the above copyright notice,
  18:Src/gpio.c    ****   *      this list of conditions and the following disclaimer.
  19:Src/gpio.c    ****   *   2. Redistributions in binary form must reproduce the above copyright notice,
  20:Src/gpio.c    ****   *      this list of conditions and the following disclaimer in the documentation
  21:Src/gpio.c    ****   *      and/or other materials provided with the distribution.
  22:Src/gpio.c    ****   *   3. Neither the name of STMicroelectronics nor the names of its contributors
  23:Src/gpio.c    ****   *      may be used to endorse or promote products derived from this software
  24:Src/gpio.c    ****   *      without specific prior written permission.
  25:Src/gpio.c    ****   *
  26:Src/gpio.c    ****   * THIS SOFTWARE IS PROVIDED BY THE COPYRIGHT HOLDERS AND CONTRIBUTORS "AS IS"
  27:Src/gpio.c    ****   * AND ANY EXPRESS OR IMPLIED WARRANTIES, INCLUDING, BUT NOT LIMITED TO, THE
  28:Src/gpio.c    ****   * IMPLIED WARRANTIES OF MERCHANTABILITY AND FITNESS FOR A PARTICULAR PURPOSE ARE
  29:Src/gpio.c    ****   * DISCLAIMED. IN NO EVENT SHALL THE COPYRIGHT HOLDER OR CONTRIBUTORS BE LIABLE
  30:Src/gpio.c    ****   * FOR ANY DIRECT, INDIRECT, INCIDENTAL, SPECIAL, EXEMPLARY, OR CONSEQUENTIAL
ARM GAS  /tmp/ccGM5pAe.s 			page 2


  31:Src/gpio.c    ****   * DAMAGES (INCLUDING, BUT NOT LIMITED TO, PROCUREMENT OF SUBSTITUTE GOODS OR
  32:Src/gpio.c    ****   * SERVICES; LOSS OF USE, DATA, OR PROFITS; OR BUSINESS INTERRUPTION) HOWEVER
  33:Src/gpio.c    ****   * CAUSED AND ON ANY THEORY OF LIABILITY, WHETHER IN CONTRACT, STRICT LIABILITY,
  34:Src/gpio.c    ****   * OR TORT (INCLUDING NEGLIGENCE OR OTHERWISE) ARISING IN ANY WAY OUT OF THE USE
  35:Src/gpio.c    ****   * OF THIS SOFTWARE, EVEN IF ADVISED OF THE POSSIBILITY OF SUCH DAMAGE.
  36:Src/gpio.c    ****   *
  37:Src/gpio.c    ****   ******************************************************************************
  38:Src/gpio.c    ****   */
  39:Src/gpio.c    **** 
  40:Src/gpio.c    **** /* Includes ------------------------------------------------------------------*/
  41:Src/gpio.c    **** #include "gpio.h"
  42:Src/gpio.c    **** /* USER CODE BEGIN 0 */
  43:Src/gpio.c    **** 
  44:Src/gpio.c    **** /* USER CODE END 0 */
  45:Src/gpio.c    **** 
  46:Src/gpio.c    **** /*----------------------------------------------------------------------------*/
  47:Src/gpio.c    **** /* Configure GPIO                                                             */
  48:Src/gpio.c    **** /*----------------------------------------------------------------------------*/
  49:Src/gpio.c    **** /* USER CODE BEGIN 1 */
  50:Src/gpio.c    **** 
  51:Src/gpio.c    **** /* USER CODE END 1 */
  52:Src/gpio.c    **** 
  53:Src/gpio.c    **** /** Configure pins as 
  54:Src/gpio.c    ****         * Analog 
  55:Src/gpio.c    ****         * Input 
  56:Src/gpio.c    ****         * Output
  57:Src/gpio.c    ****         * EVENT_OUT
  58:Src/gpio.c    ****         * EXTI
  59:Src/gpio.c    **** */
  60:Src/gpio.c    **** void MX_GPIO_Init(void)
  61:Src/gpio.c    **** {
  29              		.loc 1 61 1 view -0
  30              		.cfi_startproc
  31              		@ args = 0, pretend = 0, frame = 40
  32              		@ frame_needed = 0, uses_anonymous_args = 0
  33 0000 F0B5     		push	{r4, r5, r6, r7, lr}
  34              	.LCFI0:
  35              		.cfi_def_cfa_offset 20
  36              		.cfi_offset 4, -20
  37              		.cfi_offset 5, -16
  38              		.cfi_offset 6, -12
  39              		.cfi_offset 7, -8
  40              		.cfi_offset 14, -4
  41 0002 8BB0     		sub	sp, sp, #44
  42              	.LCFI1:
  43              		.cfi_def_cfa_offset 64
  62:Src/gpio.c    **** 
  63:Src/gpio.c    ****   GPIO_InitTypeDef GPIO_InitStruct = {0};
  44              		.loc 1 63 3 view .LVU1
  45              		.loc 1 63 20 is_stmt 0 view .LVU2
  46 0004 0024     		movs	r4, #0
  47 0006 0594     		str	r4, [sp, #20]
  48 0008 0694     		str	r4, [sp, #24]
  49 000a 0794     		str	r4, [sp, #28]
  50 000c 0894     		str	r4, [sp, #32]
  51 000e 0994     		str	r4, [sp, #36]
  64:Src/gpio.c    **** 
ARM GAS  /tmp/ccGM5pAe.s 			page 3


  65:Src/gpio.c    ****   /* GPIO Ports Clock Enable */
  66:Src/gpio.c    ****   __HAL_RCC_GPIOC_CLK_ENABLE();
  52              		.loc 1 66 3 is_stmt 1 view .LVU3
  53              	.LBB2:
  54              		.loc 1 66 3 view .LVU4
  55              		.loc 1 66 3 view .LVU5
  56 0010 314B     		ldr	r3, .L3
  57 0012 5A69     		ldr	r2, [r3, #20]
  58 0014 42F40022 		orr	r2, r2, #524288
  59 0018 5A61     		str	r2, [r3, #20]
  60              		.loc 1 66 3 view .LVU6
  61 001a 5A69     		ldr	r2, [r3, #20]
  62 001c 02F40022 		and	r2, r2, #524288
  63 0020 0192     		str	r2, [sp, #4]
  64              		.loc 1 66 3 view .LVU7
  65 0022 019A     		ldr	r2, [sp, #4]
  66              	.LBE2:
  67:Src/gpio.c    ****   __HAL_RCC_GPIOF_CLK_ENABLE();
  67              		.loc 1 67 3 view .LVU8
  68              	.LBB3:
  69              		.loc 1 67 3 view .LVU9
  70              		.loc 1 67 3 view .LVU10
  71 0024 5A69     		ldr	r2, [r3, #20]
  72 0026 42F48002 		orr	r2, r2, #4194304
  73 002a 5A61     		str	r2, [r3, #20]
  74              		.loc 1 67 3 view .LVU11
  75 002c 5A69     		ldr	r2, [r3, #20]
  76 002e 02F48002 		and	r2, r2, #4194304
  77 0032 0292     		str	r2, [sp, #8]
  78              		.loc 1 67 3 view .LVU12
  79 0034 029A     		ldr	r2, [sp, #8]
  80              	.LBE3:
  68:Src/gpio.c    ****   __HAL_RCC_GPIOA_CLK_ENABLE();
  81              		.loc 1 68 3 view .LVU13
  82              	.LBB4:
  83              		.loc 1 68 3 view .LVU14
  84              		.loc 1 68 3 view .LVU15
  85 0036 5A69     		ldr	r2, [r3, #20]
  86 0038 42F40032 		orr	r2, r2, #131072
  87 003c 5A61     		str	r2, [r3, #20]
  88              		.loc 1 68 3 view .LVU16
  89 003e 5A69     		ldr	r2, [r3, #20]
  90 0040 02F40032 		and	r2, r2, #131072
  91 0044 0392     		str	r2, [sp, #12]
  92              		.loc 1 68 3 view .LVU17
  93 0046 039A     		ldr	r2, [sp, #12]
  94              	.LBE4:
  69:Src/gpio.c    ****   __HAL_RCC_GPIOB_CLK_ENABLE();
  95              		.loc 1 69 3 view .LVU18
  96              	.LBB5:
  97              		.loc 1 69 3 view .LVU19
  98              		.loc 1 69 3 view .LVU20
  99 0048 5A69     		ldr	r2, [r3, #20]
 100 004a 42F48022 		orr	r2, r2, #262144
 101 004e 5A61     		str	r2, [r3, #20]
 102              		.loc 1 69 3 view .LVU21
 103 0050 5B69     		ldr	r3, [r3, #20]
ARM GAS  /tmp/ccGM5pAe.s 			page 4


 104 0052 03F48023 		and	r3, r3, #262144
 105 0056 0493     		str	r3, [sp, #16]
 106              		.loc 1 69 3 view .LVU22
 107 0058 049B     		ldr	r3, [sp, #16]
 108              	.LBE5:
  70:Src/gpio.c    **** 
  71:Src/gpio.c    ****   /*Configure GPIO pin Output Level */
  72:Src/gpio.c    ****   HAL_GPIO_WritePin(In8_GPIO_Port, In8_Pin, GPIO_PIN_RESET);
 109              		.loc 1 72 3 view .LVU23
 110 005a 204F     		ldr	r7, .L3+4
 111 005c 2246     		mov	r2, r4
 112 005e 4FF40051 		mov	r1, #8192
 113 0062 3846     		mov	r0, r7
 114 0064 FFF7FEFF 		bl	HAL_GPIO_WritePin
 115              	.LVL0:
  73:Src/gpio.c    **** 
  74:Src/gpio.c    ****   /*Configure GPIO pin Output Level */
  75:Src/gpio.c    ****   HAL_GPIO_WritePin(GPIOA, LED_Pin|In10_Pin|In5_Pin|In4_Pin 
 116              		.loc 1 75 3 view .LVU24
 117 0068 2246     		mov	r2, r4
 118 006a 41F60971 		movw	r1, #7945
 119 006e 4FF09040 		mov	r0, #1207959552
 120 0072 FFF7FEFF 		bl	HAL_GPIO_WritePin
 121              	.LVL1:
  76:Src/gpio.c    ****                           |In3_Pin|In7_Pin|In6_Pin, GPIO_PIN_RESET);
  77:Src/gpio.c    **** 
  78:Src/gpio.c    ****   /*Configure GPIO pin Output Level */
  79:Src/gpio.c    ****   HAL_GPIO_WritePin(GPIOB, In9_Pin|GPIO_PIN_1|GPIO_PIN_2|CAN_S_Pin 
 122              		.loc 1 79 3 view .LVU25
 123 0076 1A4D     		ldr	r5, .L3+8
 124 0078 2246     		mov	r2, r4
 125 007a 4FF20701 		movw	r1, #61447
 126 007e 2846     		mov	r0, r5
 127 0080 FFF7FEFF 		bl	HAL_GPIO_WritePin
 128              	.LVL2:
  80:Src/gpio.c    ****                           |CAN_SHTD_Pin|In1_Pin|In2_Pin, GPIO_PIN_RESET);
  81:Src/gpio.c    **** 
  82:Src/gpio.c    ****   /*Configure GPIO pin : PtPin */
  83:Src/gpio.c    ****   GPIO_InitStruct.Pin = In8_Pin;
 129              		.loc 1 83 3 view .LVU26
 130              		.loc 1 83 23 is_stmt 0 view .LVU27
 131 0084 4FF40053 		mov	r3, #8192
 132 0088 0593     		str	r3, [sp, #20]
  84:Src/gpio.c    ****   GPIO_InitStruct.Mode = GPIO_MODE_OUTPUT_PP;
 133              		.loc 1 84 3 is_stmt 1 view .LVU28
 134              		.loc 1 84 24 is_stmt 0 view .LVU29
 135 008a 0126     		movs	r6, #1
 136 008c 0696     		str	r6, [sp, #24]
  85:Src/gpio.c    ****   GPIO_InitStruct.Pull = GPIO_NOPULL;
 137              		.loc 1 85 3 is_stmt 1 view .LVU30
 138              		.loc 1 85 24 is_stmt 0 view .LVU31
 139 008e 0794     		str	r4, [sp, #28]
  86:Src/gpio.c    ****   GPIO_InitStruct.Speed = GPIO_SPEED_FREQ_LOW;
 140              		.loc 1 86 3 is_stmt 1 view .LVU32
 141              		.loc 1 86 25 is_stmt 0 view .LVU33
 142 0090 0894     		str	r4, [sp, #32]
  87:Src/gpio.c    ****   HAL_GPIO_Init(In8_GPIO_Port, &GPIO_InitStruct);
ARM GAS  /tmp/ccGM5pAe.s 			page 5


 143              		.loc 1 87 3 is_stmt 1 view .LVU34
 144 0092 05A9     		add	r1, sp, #20
 145 0094 3846     		mov	r0, r7
 146 0096 FFF7FEFF 		bl	HAL_GPIO_Init
 147              	.LVL3:
  88:Src/gpio.c    **** 
  89:Src/gpio.c    ****   /*Configure GPIO pins : PAPin PAPin PAPin PAPin 
  90:Src/gpio.c    ****                            PAPin PAPin PAPin */
  91:Src/gpio.c    ****   GPIO_InitStruct.Pin = LED_Pin|In10_Pin|In5_Pin|In4_Pin 
 148              		.loc 1 91 3 view .LVU35
 149              		.loc 1 91 23 is_stmt 0 view .LVU36
 150 009a 41F60973 		movw	r3, #7945
 151 009e 0593     		str	r3, [sp, #20]
  92:Src/gpio.c    ****                           |In3_Pin|In7_Pin|In6_Pin;
  93:Src/gpio.c    ****   GPIO_InitStruct.Mode = GPIO_MODE_OUTPUT_PP;
 152              		.loc 1 93 3 is_stmt 1 view .LVU37
 153              		.loc 1 93 24 is_stmt 0 view .LVU38
 154 00a0 0696     		str	r6, [sp, #24]
  94:Src/gpio.c    ****   GPIO_InitStruct.Pull = GPIO_NOPULL;
 155              		.loc 1 94 3 is_stmt 1 view .LVU39
 156              		.loc 1 94 24 is_stmt 0 view .LVU40
 157 00a2 0794     		str	r4, [sp, #28]
  95:Src/gpio.c    ****   GPIO_InitStruct.Speed = GPIO_SPEED_FREQ_LOW;
 158              		.loc 1 95 3 is_stmt 1 view .LVU41
 159              		.loc 1 95 25 is_stmt 0 view .LVU42
 160 00a4 0894     		str	r4, [sp, #32]
  96:Src/gpio.c    ****   HAL_GPIO_Init(GPIOA, &GPIO_InitStruct);
 161              		.loc 1 96 3 is_stmt 1 view .LVU43
 162 00a6 05A9     		add	r1, sp, #20
 163 00a8 4FF09040 		mov	r0, #1207959552
 164 00ac FFF7FEFF 		bl	HAL_GPIO_Init
 165              	.LVL4:
  97:Src/gpio.c    **** 
  98:Src/gpio.c    ****   /*Configure GPIO pins : PBPin PB1 PB2 PBPin 
  99:Src/gpio.c    ****                            PBPin PBPin PBPin */
 100:Src/gpio.c    ****   GPIO_InitStruct.Pin = In9_Pin|GPIO_PIN_1|GPIO_PIN_2|CAN_S_Pin 
 166              		.loc 1 100 3 view .LVU44
 167              		.loc 1 100 23 is_stmt 0 view .LVU45
 168 00b0 4FF20703 		movw	r3, #61447
 169 00b4 0593     		str	r3, [sp, #20]
 101:Src/gpio.c    ****                           |CAN_SHTD_Pin|In1_Pin|In2_Pin;
 102:Src/gpio.c    ****   GPIO_InitStruct.Mode = GPIO_MODE_OUTPUT_PP;
 170              		.loc 1 102 3 is_stmt 1 view .LVU46
 171              		.loc 1 102 24 is_stmt 0 view .LVU47
 172 00b6 0696     		str	r6, [sp, #24]
 103:Src/gpio.c    ****   GPIO_InitStruct.Pull = GPIO_NOPULL;
 173              		.loc 1 103 3 is_stmt 1 view .LVU48
 174              		.loc 1 103 24 is_stmt 0 view .LVU49
 175 00b8 0794     		str	r4, [sp, #28]
 104:Src/gpio.c    ****   GPIO_InitStruct.Speed = GPIO_SPEED_FREQ_LOW;
 176              		.loc 1 104 3 is_stmt 1 view .LVU50
 177              		.loc 1 104 25 is_stmt 0 view .LVU51
 178 00ba 0894     		str	r4, [sp, #32]
 105:Src/gpio.c    ****   HAL_GPIO_Init(GPIOB, &GPIO_InitStruct);
 179              		.loc 1 105 3 is_stmt 1 view .LVU52
 180 00bc 05A9     		add	r1, sp, #20
 181 00be 2846     		mov	r0, r5
ARM GAS  /tmp/ccGM5pAe.s 			page 6


 182 00c0 FFF7FEFF 		bl	HAL_GPIO_Init
 183              	.LVL5:
 106:Src/gpio.c    **** 
 107:Src/gpio.c    ****   /*Configure GPIO pins : PBPin PBPin PBPin PBPin */
 108:Src/gpio.c    ****   GPIO_InitStruct.Pin = GPIO1_Pin|GPIO2_Pin|GPIO3_Pin|GPIO4_Pin;
 184              		.loc 1 108 3 view .LVU53
 185              		.loc 1 108 23 is_stmt 0 view .LVU54
 186 00c4 F023     		movs	r3, #240
 187 00c6 0593     		str	r3, [sp, #20]
 109:Src/gpio.c    ****   GPIO_InitStruct.Mode = GPIO_MODE_INPUT;
 188              		.loc 1 109 3 is_stmt 1 view .LVU55
 189              		.loc 1 109 24 is_stmt 0 view .LVU56
 190 00c8 0694     		str	r4, [sp, #24]
 110:Src/gpio.c    ****   GPIO_InitStruct.Pull = GPIO_NOPULL;
 191              		.loc 1 110 3 is_stmt 1 view .LVU57
 192              		.loc 1 110 24 is_stmt 0 view .LVU58
 193 00ca 0794     		str	r4, [sp, #28]
 111:Src/gpio.c    ****   HAL_GPIO_Init(GPIOB, &GPIO_InitStruct);
 194              		.loc 1 111 3 is_stmt 1 view .LVU59
 195 00cc 05A9     		add	r1, sp, #20
 196 00ce 2846     		mov	r0, r5
 197 00d0 FFF7FEFF 		bl	HAL_GPIO_Init
 198              	.LVL6:
 112:Src/gpio.c    **** 
 113:Src/gpio.c    **** }
 199              		.loc 1 113 1 is_stmt 0 view .LVU60
 200 00d4 0BB0     		add	sp, sp, #44
 201              	.LCFI2:
 202              		.cfi_def_cfa_offset 20
 203              		@ sp needed
 204 00d6 F0BD     		pop	{r4, r5, r6, r7, pc}
 205              	.L4:
 206              		.align	2
 207              	.L3:
 208 00d8 00100240 		.word	1073876992
 209 00dc 00080048 		.word	1207961600
 210 00e0 00040048 		.word	1207960576
 211              		.cfi_endproc
 212              	.LFE126:
 214              		.text
 215              	.Letext0:
 216              		.file 2 "/usr/arm-none-eabi/include/machine/_default_types.h"
 217              		.file 3 "/usr/arm-none-eabi/include/sys/_stdint.h"
 218              		.file 4 "Drivers/CMSIS/Include/core_cm4.h"
 219              		.file 5 "Drivers/CMSIS/Device/ST/STM32F3xx/Include/system_stm32f3xx.h"
 220              		.file 6 "Drivers/CMSIS/Device/ST/STM32F3xx/Include/stm32f303xc.h"
 221              		.file 7 "/usr/arm-none-eabi/include/sys/lock.h"
 222              		.file 8 "/usr/arm-none-eabi/include/sys/_types.h"
 223              		.file 9 "/usr/lib/gcc/arm-none-eabi/8.2.0/include/stddef.h"
 224              		.file 10 "/usr/arm-none-eabi/include/sys/reent.h"
 225              		.file 11 "Drivers/STM32F3xx_HAL_Driver/Inc/stm32f3xx_hal_gpio.h"
 226              		.file 12 "Drivers/STM32F3xx_HAL_Driver/Inc/stm32f3xx_hal.h"
ARM GAS  /tmp/ccGM5pAe.s 			page 7

